target datalayout = "e-m:e-p270:32:32-p271:32:32-p272:64:64-i64:64-i128:128-f80:128-n8:16:32:64-S128"
target triple = "x86_64-pc-linux-gnu"

%struct.aclSelector = type { i32, [16 x i64], ptr, ptr, ptr, ptr }
%struct.user = type { ptr, i32, ptr, ptr, ptr }
%struct.listNode = type { ptr, ptr, ptr }
%struct.listIter = type { ptr, i32 }

; Function Attrs: nounwind uwtable
define dso_local ptr @getUpcomingChannelList(ptr noundef %0, ptr noundef %1) #0 {
  %3 = alloca ptr, align 8
  %4 = alloca ptr, align 8
  %5 = alloca ptr, align 8
  %6 = alloca %struct.listIter, align 8
  %7 = alloca %struct.listIter, align 8
  %8 = alloca ptr, align 8
  %9 = alloca ptr, align 8
  %10 = alloca ptr, align 8
  %11 = alloca i32, align 4
  %12 = alloca ptr, align 8
  %13 = alloca ptr, align 8
  %14 = alloca i32, align 4
  %15 = alloca ptr, align 8
  store ptr %0, ptr %4, align 8, !tbaa !32
  store ptr %1, ptr %5, align 8, !tbaa !32
  call void @llvm.lifetime.start.p0(i64 16, ptr %6) #14
  call void @llvm.lifetime.start.p0(i64 16, ptr %7) #14
  call void @llvm.lifetime.start.p0(i64 8, ptr %8) #14
  call void @llvm.lifetime.start.p0(i64 8, ptr %9) #14
  %16 = load ptr, ptr %4, align 8, !tbaa !32
  %17 = getelementptr inbounds nuw %struct.user, ptr %16, i32 0, i32 3
  %18 = load ptr, ptr %17, align 8, !tbaa !81
  call void @listRewind(ptr noundef %18, ptr noundef %6)
  br label %19

19:                                               ; preds = %35, %2
  %20 = call ptr @listNext(ptr noundef %6)
  store ptr %20, ptr %8, align 8, !tbaa !94
  %21 = icmp ne ptr %20, null
  br i1 %21, label %22, label %36

22:                                               ; preds = %19
  call void @llvm.lifetime.start.p0(i64 8, ptr %10) #14
  %23 = load ptr, ptr %8, align 8, !tbaa !94
  %24 = getelementptr inbounds nuw %struct.listNode, ptr %23, i32 0, i32 2
  %25 = load ptr, ptr %24, align 8, !tbaa !86
  store ptr %25, ptr %10, align 8, !tbaa !32
  %26 = load ptr, ptr %10, align 8, !tbaa !32
  %27 = getelementptr inbounds nuw %struct.aclSelector, ptr %26, i32 0, i32 0
  %28 = load i32, ptr %27, align 8, !tbaa !64
  %29 = and i32 %28, 8
  %30 = icmp ne i32 %29, 0
  br i1 %30, label %31, label %32

31:                                               ; preds = %22
  store ptr null, ptr %3, align 8
  store i32 1, ptr %11, align 4
  br label %33

32:                                               ; preds = %22
  store i32 0, ptr %11, align 4
  br label %33

33:                                               ; preds = %32, %31
  call void @llvm.lifetime.end.p0(i64 8, ptr %10) #14
  %34 = load i32, ptr %11, align 4
  switch i32 %34, label %116 [
    i32 0, label %35
  ]

35:                                               ; preds = %33
  br label %19, !llvm.loop !197

36:                                               ; preds = %19
  call void @llvm.lifetime.start.p0(i64 8, ptr %12) #14
  %37 = call ptr @listCreate()
  store ptr %37, ptr %12, align 8, !tbaa !150
  %38 = load ptr, ptr %4, align 8, !tbaa !32
  %39 = getelementptr inbounds nuw %struct.user, ptr %38, i32 0, i32 3
  %40 = load ptr, ptr %39, align 8, !tbaa !81
  call void @listRewind(ptr noundef %40, ptr noundef %6)
  br label %41

41:                                               ; preds = %60, %36
  %42 = call ptr @listNext(ptr noundef %6)
  store ptr %42, ptr %8, align 8, !tbaa !94
  %43 = icmp ne ptr %42, null
  br i1 %43, label %44, label %61

44:                                               ; preds = %41
  call void @llvm.lifetime.start.p0(i64 8, ptr %13) #14
  %45 = load ptr, ptr %8, align 8, !tbaa !94
  %46 = getelementptr inbounds nuw %struct.listNode, ptr %45, i32 0, i32 2
  %47 = load ptr, ptr %46, align 8, !tbaa !86
  store ptr %47, ptr %13, align 8, !tbaa !32
  %48 = load ptr, ptr %13, align 8, !tbaa !32
  %49 = getelementptr inbounds nuw %struct.aclSelector, ptr %48, i32 0, i32 4
  %50 = load ptr, ptr %49, align 8, !tbaa !68
  call void @listRewind(ptr noundef %50, ptr noundef %7)
  br label %51

51:                                               ; preds = %54, %44
  %52 = call ptr @listNext(ptr noundef %7)
  store ptr %52, ptr %9, align 8, !tbaa !94
  %53 = icmp ne ptr %52, null
  br i1 %53, label %54, label %60

54:                                               ; preds = %51
  %55 = load ptr, ptr %12, align 8, !tbaa !150
  %56 = load ptr, ptr %9, align 8, !tbaa !94
  %57 = getelementptr inbounds nuw %struct.listNode, ptr %56, i32 0, i32 2
  %58 = load ptr, ptr %57, align 8, !tbaa !86
  %59 = call ptr @listAddNodeTail(ptr noundef %55, ptr noundef %58)
  br label %51, !llvm.loop !198

60:                                               ; preds = %51
  call void @llvm.lifetime.end.p0(i64 8, ptr %13) #14
  br label %41, !llvm.loop !199

61:                                               ; preds = %41
  call void @llvm.lifetime.start.p0(i64 4, ptr %14) #14
  store i32 1, ptr %14, align 4, !tbaa !17
  %62 = load ptr, ptr %5, align 8, !tbaa !32
  %63 = getelementptr inbounds nuw %struct.user, ptr %62, i32 0, i32 3
  %64 = load ptr, ptr %63, align 8, !tbaa !81
  call void @listRewind(ptr noundef %64, ptr noundef %6)
  br label %65

65:                                               ; preds = %107, %61
  %66 = call ptr @listNext(ptr noundef %6)
  store ptr %66, ptr %8, align 8, !tbaa !94
  %67 = icmp ne ptr %66, null
  br i1 %67, label %68, label %71

68:                                               ; preds = %65
  %69 = load i32, ptr %14, align 4, !tbaa !17
  %70 = icmp ne i32 %69, 0
  br label %71

71:                                               ; preds = %68, %65
  %72 = phi i1 [ false, %65 ], [ %70, %68 ]
  br i1 %72, label %73, label %108

73:                                               ; preds = %71
  call void @llvm.lifetime.start.p0(i64 8, ptr %15) #14
  %74 = load ptr, ptr %8, align 8, !tbaa !94
  %75 = getelementptr inbounds nuw %struct.listNode, ptr %74, i32 0, i32 2
  %76 = load ptr, ptr %75, align 8, !tbaa !86
  store ptr %76, ptr %15, align 8, !tbaa !32
  %77 = load ptr, ptr %15, align 8, !tbaa !32
  %78 = getelementptr inbounds nuw %struct.aclSelector, ptr %77, i32 0, i32 0
  %79 = load i32, ptr %78, align 8, !tbaa !64
  %80 = and i32 %79, 8
  %81 = icmp ne i32 %80, 0
  br i1 %81, label %82, label %83

82:                                               ; preds = %73
  store i32 0, ptr %14, align 4, !tbaa !17
  store i32 9, ptr %11, align 4
  br label %105

83:                                               ; preds = %73
  %84 = load ptr, ptr %15, align 8, !tbaa !32
  %85 = getelementptr inbounds nuw %struct.aclSelector, ptr %84, i32 0, i32 4
  %86 = load ptr, ptr %85, align 8, !tbaa !68
  call void @listRewind(ptr noundef %86, ptr noundef %7)
  br label %87

87:                                               ; preds = %103, %83
  %88 = call ptr @listNext(ptr noundef %7)
  store ptr %88, ptr %9, align 8, !tbaa !94
  %89 = icmp ne ptr %88, null
  br i1 %89, label %90, label %93

90:                                               ; preds = %87
  %91 = load i32, ptr %14, align 4, !tbaa !17
  %92 = icmp ne i32 %91, 0
  br label %93

93:                                               ; preds = %90, %87
  %94 = phi i1 [ false, %87 ], [ %92, %90 ]
  br i1 %94, label %95, label %104

95:                                               ; preds = %93
  %96 = load ptr, ptr %12, align 8, !tbaa !150
  %97 = load ptr, ptr %9, align 8, !tbaa !94
  %98 = getelementptr inbounds nuw %struct.listNode, ptr %97, i32 0, i32 2
  %99 = load ptr, ptr %98, align 8, !tbaa !86
  %100 = call ptr @listSearchKey(ptr noundef %96, ptr noundef %99)
  %101 = icmp ne ptr %100, null
  br i1 %101, label %103, label %102

102:                                              ; preds = %95
  store i32 0, ptr %14, align 4, !tbaa !17
  br label %104

103:                                              ; preds = %95
  br label %87, !llvm.loop !200

104:                                              ; preds = %102, %93
  store i32 0, ptr %11, align 4
  br label %105

105:                                              ; preds = %104, %82
  call void @llvm.lifetime.end.p0(i64 8, ptr %15) #14
  %106 = load i32, ptr %11, align 4
  switch i32 %106, label %118 [
    i32 0, label %107
    i32 9, label %108
  ]

107:                                              ; preds = %105
  br label %65, !llvm.loop !201

108:                                              ; preds = %105, %71
  %109 = load i32, ptr %14, align 4, !tbaa !17
  %110 = icmp ne i32 %109, 0
  br i1 %110, label %111, label %113

111:                                              ; preds = %108
  %112 = load ptr, ptr %12, align 8, !tbaa !150
  call void @listRelease(ptr noundef %112)
  store ptr null, ptr %3, align 8
  store i32 1, ptr %11, align 4
  br label %115

113:                                              ; preds = %108
  %114 = load ptr, ptr %12, align 8, !tbaa !150
  store ptr %114, ptr %3, align 8
  store i32 1, ptr %11, align 4
  br label %115

115:                                              ; preds = %113, %111
  call void @llvm.lifetime.end.p0(i64 4, ptr %14) #14
  call void @llvm.lifetime.end.p0(i64 8, ptr %12) #14
  br label %116

116:                                              ; preds = %115, %33
  call void @llvm.lifetime.end.p0(i64 8, ptr %9) #14
  call void @llvm.lifetime.end.p0(i64 8, ptr %8) #14
  call void @llvm.lifetime.end.p0(i64 16, ptr %7) #14
  call void @llvm.lifetime.end.p0(i64 16, ptr %6) #14
  %117 = load ptr, ptr %3, align 8
  ret ptr %117

118:                                              ; preds = %105
  unreachable
}