; Function Attrs: nounwind uwtable
define dso_local ptr @getUpcomingChannelList(ptr noundef readonly captures(none) %0, ptr noundef readonly captures(none) %1) local_unnamed_addr #0 {
  %3 = alloca %struct.listIter, align 8
  %4 = alloca %struct.listIter, align 8
  call void @llvm.lifetime.start.p0(i64 16, ptr nonnull %3) #25
  call void @llvm.lifetime.start.p0(i64 16, ptr nonnull %4) #25
  %5 = getelementptr inbounds nuw i8, ptr %0, i64 24
  %6 = load ptr, ptr %5, align 8, !tbaa !79
  call void @listRewind(ptr noundef %6, ptr noundef nonnull %3) #25
  br label %7

7:                                                ; preds = %9, %2
  %8 = call ptr @listNext(ptr noundef nonnull %3) #25
  %.not = icmp eq ptr %8, null
  br i1 %.not, label %14, label %9

9:                                                ; preds = %7
  %10 = getelementptr inbounds nuw i8, ptr %8, i64 16
  %11 = load ptr, ptr %10, align 8, !tbaa !85
  %12 = load i32, ptr %11, align 8, !tbaa !61
  %13 = and i32 %12, 8
  %.not38 = icmp eq i32 %13, 0
  br i1 %.not38, label %7, label %.thread42, !llvm.loop !190

14:                                               ; preds = %7
  %15 = call ptr @listCreate() #25
  %16 = load ptr, ptr %5, align 8, !tbaa !79
  call void @listRewind(ptr noundef %16, ptr noundef nonnull %3) #25
  %17 = call ptr @listNext(ptr noundef nonnull %3) #25
  %.not3248 = icmp eq ptr %17, null
  br i1 %.not3248, label %._crit_edge, label %.lr.ph49

.loopexit:                                        ; preds = %.lr.ph, %.lr.ph49
  %18 = call ptr @listNext(ptr noundef nonnull %3) #25
  %.not32 = icmp eq ptr %18, null
  br i1 %.not32, label %._crit_edge, label %.lr.ph49, !llvm.loop !191

.lr.ph49:                                         ; preds = %14, %.loopexit
  %19 = phi ptr [ %18, %.loopexit ], [ %17, %14 ]
  %20 = getelementptr inbounds nuw i8, ptr %19, i64 16
  %21 = load ptr, ptr %20, align 8, !tbaa !85
  %22 = getelementptr inbounds nuw i8, ptr %21, i64 152
  %23 = load ptr, ptr %22, align 8, !tbaa !65
  call void @listRewind(ptr noundef %23, ptr noundef nonnull %4) #25
  %24 = call ptr @listNext(ptr noundef nonnull %4) #25
  %.not3747 = icmp eq ptr %24, null
  br i1 %.not3747, label %.loopexit, label %.lr.ph

.lr.ph:                                           ; preds = %.lr.ph49, %.lr.ph
  %25 = phi ptr [ %29, %.lr.ph ], [ %24, %.lr.ph49 ]
  %26 = getelementptr inbounds nuw i8, ptr %25, i64 16
  %27 = load ptr, ptr %26, align 8, !tbaa !85
  %28 = call ptr @listAddNodeTail(ptr noundef %15, ptr noundef %27) #25
  %29 = call ptr @listNext(ptr noundef nonnull %4) #25
  %.not37 = icmp eq ptr %29, null
  br i1 %.not37, label %.loopexit, label %.lr.ph, !llvm.loop !192

._crit_edge:                                      ; preds = %.loopexit, %14
  %30 = getelementptr inbounds nuw i8, ptr %1, i64 24
  %31 = load ptr, ptr %30, align 8, !tbaa !79
  call void @listRewind(ptr noundef %31, ptr noundef nonnull %3) #25
  %32 = call ptr @listNext(ptr noundef nonnull %3) #25
  %.not53 = icmp eq ptr %32, null
  br i1 %.not53, label %._crit_edge52, label %.lr.ph51

.lr.ph51:                                         ; preds = %._crit_edge, %48
  %33 = phi ptr [ %49, %48 ], [ %32, %._crit_edge ]
  %34 = getelementptr inbounds nuw i8, ptr %33, i64 16
  %35 = load ptr, ptr %34, align 8, !tbaa !85
  %36 = load i32, ptr %35, align 8, !tbaa !61
  %37 = and i32 %36, 8
  %.not33 = icmp eq i32 %37, 0
  br i1 %.not33, label %38, label %.thread42

38:                                               ; preds = %.lr.ph51
  %39 = getelementptr inbounds nuw i8, ptr %35, i64 152
  %40 = load ptr, ptr %39, align 8, !tbaa !65
  call void @listRewind(ptr noundef %40, ptr noundef nonnull %4) #25
  br label %41

41:                                               ; preds = %43, %38
  %42 = call ptr @listNext(ptr noundef nonnull %4) #25
  %.not34 = icmp eq ptr %42, null
  br i1 %.not34, label %48, label %43

43:                                               ; preds = %41
  %44 = getelementptr inbounds nuw i8, ptr %42, i64 16
  %45 = load ptr, ptr %44, align 8, !tbaa !85
  %46 = call ptr @listSearchKey(ptr noundef %15, ptr noundef %45) #25
  %.not35 = icmp eq ptr %46, null
  br i1 %.not35, label %._crit_edge52.thread56, label %41, !llvm.loop !193

._crit_edge52.thread56:                           ; preds = %43
  %47 = call ptr @listNext(ptr noundef nonnull %3) #25
  br label %.thread42

48:                                               ; preds = %41
  %49 = call ptr @listNext(ptr noundef nonnull %3) #25
  %.not59 = icmp eq ptr %49, null
  br i1 %.not59, label %._crit_edge52, label %.lr.ph51

._crit_edge52:                                    ; preds = %48, %._crit_edge
  call void @listRelease(ptr noundef %15) #25
  br label %.thread42

.thread42:                                        ; preds = %9, %.lr.ph51, %._crit_edge52.thread56, %._crit_edge52
  %.2 = phi ptr [ null, %._crit_edge52 ], [ %15, %._crit_edge52.thread56 ], [ %15, %.lr.ph51 ], [ null, %9 ]
  call void @llvm.lifetime.end.p0(i64 16, ptr nonnull %4) #25
  call void @llvm.lifetime.end.p0(i64 16, ptr nonnull %3) #25
  ret ptr %.2
}